; Function Attrs: nounwind uwtable
define dso_local range(i32 -2147483648, 1) i32 @uv_pipe_getsockname(ptr noundef %0, ptr noundef captures(none) %1, ptr noundef captures(none) %2) local_unnamed_addr #0 {
  %4 = alloca %struct.sockaddr_un, align 2
  %5 = alloca i32, align 4
  call void @llvm.lifetime.start.p0(i64 110, ptr nonnull %4) #11
  call void @llvm.lifetime.start.p0(i64 4, ptr nonnull %5) #11
  store i32 110, ptr %5, align 4, !tbaa !23
  call void @llvm.memset.p0.i64(ptr noundef nonnull align 2 dereferenceable(110) %4, i8 0, i64 110, i1 false)
  %6 = call i32 @uv__getsockpeername(ptr noundef %0, ptr noundef nonnull @getsockname, ptr noundef nonnull %4, ptr noundef nonnull %5) #11
  %7 = icmp slt i32 %6, 0
  br i1 %7, label %8, label %9

8:                                                ; preds = %3
  store i64 0, ptr %2, align 8, !tbaa !38
  br label %uv__pipe_getsockpeername.exit

9:                                                ; preds = %3
  %10 = getelementptr inbounds nuw i8, ptr %4, i64 2
  %11 = load i8, ptr %10, align 2, !tbaa !34
  %12 = icmp eq i8 %11, 0
  br i1 %12, label %13, label %17

13:                                               ; preds = %9
  %14 = load i32, ptr %5, align 4, !tbaa !23
  %15 = zext i32 %14 to i64
  %16 = add nsw i64 %15, -2
  br label %19

17:                                               ; preds = %9
  %18 = call i64 @strlen(ptr noundef nonnull dereferenceable(1) %10) #13
  br label %19

19:                                               ; preds = %17, %13
  %storemerge.in.i = phi i64 [ %18, %17 ], [ %16, %13 ]
  %20 = and i64 %storemerge.in.i, 4294967295
  %21 = load i64, ptr %2, align 8, !tbaa !38
  %.not.i = icmp ult i64 %20, %21
  br i1 %.not.i, label %25, label %22

22:                                               ; preds = %19
  %23 = add i64 %storemerge.in.i, 1
  %24 = and i64 %23, 4294967295
  store i64 %24, ptr %2, align 8, !tbaa !38
  br label %uv__pipe_getsockpeername.exit

25:                                               ; preds = %19
  call void @llvm.memcpy.p0.p0.i64(ptr align 1 %1, ptr nonnull align 2 %10, i64 %20, i1 false)
  store i64 %20, ptr %2, align 8, !tbaa !38
  %26 = load i8, ptr %1, align 1, !tbaa !34
  %.not13.i = icmp eq i8 %26, 0
  br i1 %.not13.i, label %uv__pipe_getsockpeername.exit, label %27

27:                                               ; preds = %25
  %28 = getelementptr inbounds nuw i8, ptr %1, i64 %20
  store i8 0, ptr %28, align 1, !tbaa !34
  br label %uv__pipe_getsockpeername.exit

uv__pipe_getsockpeername.exit:                    ; preds = %8, %22, %25, %27
  %.0.i = phi i32 [ %6, %8 ], [ -105, %22 ], [ 0, %27 ], [ 0, %25 ]
  call void @llvm.lifetime.end.p0(i64 4, ptr nonnull %5) #11
  call void @llvm.lifetime.end.p0(i64 110, ptr nonnull %4) #11
  ret i32 %.0.i
}